target datalayout = "e-m:e-p270:32:32-p271:32:32-p272:64:64-i64:64-i128:128-f80:128-n8:16:32:64-S128"
target triple = "x86_64-pc-linux-gnu"

%class.b3Generic6DofConstraint = type { %class.b3TypedConstraint, %class.b3Transform, %class.b3Transform, %class.b3TranslationalLimitMotor, [3 x %class.b3RotationalLimitMotor], %class.b3Transform, %class.b3Transform, %class.b3Vector3, [3 x %class.b3Vector3], %class.b3Vector3, float, float, float, i8, %class.b3Vector3, i8, i8, i32, [8 x i8] }
%class.b3TypedConstraint = type { ptr, %struct.b3TypedObject, i32, %union.anon, float, i8, i8, i32, i32, i32, float, float, ptr }
%struct.b3TypedObject = type { i32 }
%union.anon = type { ptr }
%class.b3TranslationalLimitMotor = type { %class.b3Vector3, %class.b3Vector3, %class.b3Vector3, %class.b3Vector3, %class.b3Vector3, %class.b3Vector3, %class.b3Vector3, %class.b3Vector3, %class.b3Vector3, %class.b3Vector3, float, float, float, [3 x i8], [3 x i32], [4 x i8] }
%class.b3RotationalLimitMotor = type { float, float, float, float, float, float, float, float, float, float, float, i8, float, float, i32, float }
%class.b3Transform = type { %class.b3Matrix3x3, %class.b3Vector3 }
%class.b3Matrix3x3 = type { [3 x %class.b3Vector3] }
%class.b3Vector3 = type { %union.anon.0 }
%union.anon.0 = type { [4 x float] }

; Function Attrs: mustprogress nounwind uwtable
define linkonce_odr dso_local noundef zeroext i1 @_ZN22b3RotationalLimitMotor16needApplyTorquesEv(ptr noundef nonnull align 4 dereferenceable(64) %0) #3 comdat align 2 {
  %2 = alloca i1, align 1
  %3 = alloca ptr, align 8
  store ptr %0, ptr %3, align 8, !tbaa !43
  %4 = load ptr, ptr %3, align 8
  %5 = getelementptr inbounds nuw %class.b3RotationalLimitMotor, ptr %4, i32 0, i32 14
  %6 = load i32, ptr %5, align 4, !tbaa !58
  %7 = icmp eq i32 %6, 0
  br i1 %7, label %8, label %15

8:                                                ; preds = %1
  %9 = getelementptr inbounds nuw %class.b3RotationalLimitMotor, ptr %4, i32 0, i32 11
  %10 = load i8, ptr %9, align 4, !tbaa !60, !range !19, !noundef !20
  %11 = trunc i8 %10 to i1
  %12 = zext i1 %11 to i32
  %13 = icmp eq i32 %12, 0
  br i1 %13, label %14, label %15

14:                                               ; preds = %8
  store i1 false, ptr %2, align 1
  br label %16

15:                                               ; preds = %8, %1
  store i1 true, ptr %2, align 1
  br label %16

16:                                               ; preds = %15, %14
  %17 = load i1, ptr %2, align 1
  ret i1 %17
}

; Function Attrs: mustprogress nounwind uwtable
define dso_local noundef i32 @_ZN22b3RotationalLimitMotor14testLimitValueEf(ptr noundef nonnull align 4 dereferenceable(64) %0, float noundef %1) #3 align 2 {
  %3 = alloca i32, align 4
  %4 = alloca ptr, align 8
  %5 = alloca float, align 4
  store ptr %0, ptr %4, align 8, !tbaa !43
  store float %1, ptr %5, align 4, !tbaa !37
  %6 = load ptr, ptr %4, align 8
  %7 = getelementptr inbounds nuw %class.b3RotationalLimitMotor, ptr %6, i32 0, i32 0
  %8 = load float, ptr %7, align 4, !tbaa !50
  %9 = getelementptr inbounds nuw %class.b3RotationalLimitMotor, ptr %6, i32 0, i32 1
  %10 = load float, ptr %9, align 4, !tbaa !51
  %11 = fcmp ogt float %8, %10
  br i1 %11, label %12, label %14

12:                                               ; preds = %2
  %13 = getelementptr inbounds nuw %class.b3RotationalLimitMotor, ptr %6, i32 0, i32 14
  store i32 0, ptr %13, align 4, !tbaa !58
  store i32 0, ptr %3, align 4
  br label %75

14:                                               ; preds = %2
  %15 = load float, ptr %5, align 4, !tbaa !37
  %16 = getelementptr inbounds nuw %class.b3RotationalLimitMotor, ptr %6, i32 0, i32 0
  %17 = load float, ptr %16, align 4, !tbaa !50
  %18 = fcmp olt float %15, %17
  br i1 %18, label %19, label %43

19:                                               ; preds = %14
  %20 = getelementptr inbounds nuw %class.b3RotationalLimitMotor, ptr %6, i32 0, i32 14
  store i32 1, ptr %20, align 4, !tbaa !58
  %21 = load float, ptr %5, align 4, !tbaa !37
  %22 = getelementptr inbounds nuw %class.b3RotationalLimitMotor, ptr %6, i32 0, i32 0
  %23 = load float, ptr %22, align 4, !tbaa !50
  %24 = fsub float %21, %23
  %25 = getelementptr inbounds nuw %class.b3RotationalLimitMotor, ptr %6, i32 0, i32 12
  store float %24, ptr %25, align 4, !tbaa !59
  %26 = getelementptr inbounds nuw %class.b3RotationalLimitMotor, ptr %6, i32 0, i32 12
  %27 = load float, ptr %26, align 4, !tbaa !59
  %28 = fcmp ogt float %27, 0x400921FB60000000
  br i1 %28, label %29, label %33

29:                                               ; preds = %19
  %30 = getelementptr inbounds nuw %class.b3RotationalLimitMotor, ptr %6, i32 0, i32 12
  %31 = load float, ptr %30, align 4, !tbaa !59
  %32 = fsub float %31, 0x401921FB60000000
  store float %32, ptr %30, align 4, !tbaa !59
  br label %42

33:                                               ; preds = %19
  %34 = getelementptr inbounds nuw %class.b3RotationalLimitMotor, ptr %6, i32 0, i32 12
  %35 = load float, ptr %34, align 4, !tbaa !59
  %36 = fcmp olt float %35, 0xC00921FB60000000
  br i1 %36, label %37, label %41

37:                                               ; preds = %33
  %38 = getelementptr inbounds nuw %class.b3RotationalLimitMotor, ptr %6, i32 0, i32 12
  %39 = load float, ptr %38, align 4, !tbaa !59
  %40 = fadd float %39, 0x401921FB60000000
  store float %40, ptr %38, align 4, !tbaa !59
  br label %41

41:                                               ; preds = %37, %33
  br label %42

42:                                               ; preds = %41, %29
  store i32 1, ptr %3, align 4
  br label %75

43:                                               ; preds = %14
  %44 = load float, ptr %5, align 4, !tbaa !37
  %45 = getelementptr inbounds nuw %class.b3RotationalLimitMotor, ptr %6, i32 0, i32 1
  %46 = load float, ptr %45, align 4, !tbaa !51
  %47 = fcmp ogt float %44, %46
  br i1 %47, label %48, label %72

48:                                               ; preds = %43
  %49 = getelementptr inbounds nuw %class.b3RotationalLimitMotor, ptr %6, i32 0, i32 14
  store i32 2, ptr %49, align 4, !tbaa !58
  %50 = load float, ptr %5, align 4, !tbaa !37
  %51 = getelementptr inbounds nuw %class.b3RotationalLimitMotor, ptr %6, i32 0, i32 1
  %52 = load float, ptr %51, align 4, !tbaa !51
  %53 = fsub float %50, %52
  %54 = getelementptr inbounds nuw %class.b3RotationalLimitMotor, ptr %6, i32 0, i32 12
  store float %53, ptr %54, align 4, !tbaa !59
  %55 = getelementptr inbounds nuw %class.b3RotationalLimitMotor, ptr %6, i32 0, i32 12
  %56 = load float, ptr %55, align 4, !tbaa !59
  %57 = fcmp ogt float %56, 0x400921FB60000000
  br i1 %57, label %58, label %62

58:                                               ; preds = %48
  %59 = getelementptr inbounds nuw %class.b3RotationalLimitMotor, ptr %6, i32 0, i32 12
  %60 = load float, ptr %59, align 4, !tbaa !59
  %61 = fsub float %60, 0x401921FB60000000
  store float %61, ptr %59, align 4, !tbaa !59
  br label %71

62:                                               ; preds = %48
  %63 = getelementptr inbounds nuw %class.b3RotationalLimitMotor, ptr %6, i32 0, i32 12
  %64 = load float, ptr %63, align 4, !tbaa !59
  %65 = fcmp olt float %64, 0xC00921FB60000000
  br i1 %65, label %66, label %70

66:                                               ; preds = %62
  %67 = getelementptr inbounds nuw %class.b3RotationalLimitMotor, ptr %6, i32 0, i32 12
  %68 = load float, ptr %67, align 4, !tbaa !59
  %69 = fadd float %68, 0x401921FB60000000
  store float %69, ptr %67, align 4, !tbaa !59
  br label %70

70:                                               ; preds = %66, %62
  br label %71

71:                                               ; preds = %70, %58
  store i32 2, ptr %3, align 4
  br label %75

72:                                               ; preds = %43
  br label %73

73:                                               ; preds = %72
  %74 = getelementptr inbounds nuw %class.b3RotationalLimitMotor, ptr %6, i32 0, i32 14
  store i32 0, ptr %74, align 4, !tbaa !58
  store i32 0, ptr %3, align 4
  br label %75

75:                                               ; preds = %73, %71, %42, %12
  %76 = load i32, ptr %3, align 4
  ret i32 %76
}

; Function Attrs: inlinehint mustprogress nounwind uwtable
define linkonce_odr dso_local noundef ptr @_ZN9b3Vector3cvPfEv(ptr noundef nonnull align 16 dereferenceable(16) %0) #5 comdat align 2 {
  %2 = alloca ptr, align 8
  store ptr %0, ptr %2, align 8, !tbaa !65
  %3 = load ptr, ptr %2, align 8
  %4 = getelementptr inbounds nuw %class.b3Vector3, ptr %3, i32 0, i32 0
  %5 = getelementptr inbounds [4 x float], ptr %4, i64 0, i64 0
  ret ptr %5
}

; Function Attrs: mustprogress uwtable
define dso_local noundef zeroext i1 @_ZN23b3Generic6DofConstraint21testAngularLimitMotorEi(ptr noundef nonnull align 16 dereferenceable(824) %0, i32 noundef %1) #0 align 2 {
  %3 = alloca ptr, align 8
  %4 = alloca i32, align 4
  %5 = alloca float, align 4
  store ptr %0, ptr %3, align 8, !tbaa !4
  store i32 %1, ptr %4, align 4, !tbaa !9
  %6 = load ptr, ptr %3, align 8
  call void @llvm.lifetime.start.p0(i64 4, ptr %5) #13
  %7 = getelementptr inbounds nuw %class.b3Generic6DofConstraint, ptr %6, i32 0, i32 7
  %8 = call noundef ptr @_ZN9b3Vector3cvPfEv(ptr noundef nonnull align 16 dereferenceable(16) %7)
  %9 = load i32, ptr %4, align 4, !tbaa !9
  %10 = sext i32 %9 to i64
  %11 = getelementptr inbounds float, ptr %8, i64 %10
  %12 = load float, ptr %11, align 4, !tbaa !37
  store float %12, ptr %5, align 4, !tbaa !37
  %13 = load float, ptr %5, align 4, !tbaa !37
  %14 = getelementptr inbounds nuw %class.b3Generic6DofConstraint, ptr %6, i32 0, i32 4
  %15 = load i32, ptr %4, align 4, !tbaa !9
  %16 = sext i32 %15 to i64
  %17 = getelementptr inbounds [3 x %class.b3RotationalLimitMotor], ptr %14, i64 0, i64 %16
  %18 = getelementptr inbounds nuw %class.b3RotationalLimitMotor, ptr %17, i32 0, i32 0
  %19 = load float, ptr %18, align 16, !tbaa !50
  %20 = getelementptr inbounds nuw %class.b3Generic6DofConstraint, ptr %6, i32 0, i32 4
  %21 = load i32, ptr %4, align 4, !tbaa !9
  %22 = sext i32 %21 to i64
  %23 = getelementptr inbounds [3 x %class.b3RotationalLimitMotor], ptr %20, i64 0, i64 %22
  %24 = getelementptr inbounds nuw %class.b3RotationalLimitMotor, ptr %23, i32 0, i32 1
  %25 = load float, ptr %24, align 4, !tbaa !51
  %26 = call noundef float @_Z21b3AdjustAngleToLimitsfff(float noundef %13, float noundef %19, float noundef %25)
  store float %26, ptr %5, align 4, !tbaa !37
  %27 = load float, ptr %5, align 4, !tbaa !37
  %28 = getelementptr inbounds nuw %class.b3Generic6DofConstraint, ptr %6, i32 0, i32 4
  %29 = load i32, ptr %4, align 4, !tbaa !9
  %30 = sext i32 %29 to i64
  %31 = getelementptr inbounds [3 x %class.b3RotationalLimitMotor], ptr %28, i64 0, i64 %30
  %32 = getelementptr inbounds nuw %class.b3RotationalLimitMotor, ptr %31, i32 0, i32 13
  store float %27, ptr %32, align 4, !tbaa !75
  %33 = getelementptr inbounds nuw %class.b3Generic6DofConstraint, ptr %6, i32 0, i32 4
  %34 = load i32, ptr %4, align 4, !tbaa !9
  %35 = sext i32 %34 to i64
  %36 = getelementptr inbounds [3 x %class.b3RotationalLimitMotor], ptr %33, i64 0, i64 %35
  %37 = load float, ptr %5, align 4, !tbaa !37
  %38 = call noundef i32 @_ZN22b3RotationalLimitMotor14testLimitValueEf(ptr noundef nonnull align 4 dereferenceable(64) %36, float noundef %37)
  %39 = getelementptr inbounds nuw %class.b3Generic6DofConstraint, ptr %6, i32 0, i32 4
  %40 = load i32, ptr %4, align 4, !tbaa !9
  %41 = sext i32 %40 to i64
  %42 = getelementptr inbounds [3 x %class.b3RotationalLimitMotor], ptr %39, i64 0, i64 %41
  %43 = call noundef zeroext i1 @_ZN22b3RotationalLimitMotor16needApplyTorquesEv(ptr noundef nonnull align 4 dereferenceable(64) %42)
  call void @llvm.lifetime.end.p0(i64 4, ptr %5) #13
  ret i1 %43
}