; Function Attrs: mustprogress uwtable
define dso_local noundef zeroext i1 @_ZN23b3Generic6DofConstraint21testAngularLimitMotorEi(ptr noundef nonnull align 16 captures(none) dereferenceable(824) %0, i32 noundef %1) local_unnamed_addr #0 align 2 {
  %3 = getelementptr inbounds nuw i8, ptr %0, i64 704
  %4 = sext i32 %1 to i64
  %5 = getelementptr inbounds float, ptr %3, i64 %4
  %6 = load float, ptr %5, align 4, !tbaa !16
  %7 = getelementptr inbounds nuw i8, ptr %0, i64 384
  %8 = getelementptr inbounds [3 x %class.b3RotationalLimitMotor], ptr %7, i64 0, i64 %4
  %9 = load float, ptr %8, align 16, !tbaa !25
  %10 = getelementptr inbounds nuw i8, ptr %8, i64 4
  %11 = load float, ptr %10, align 4, !tbaa !26
  %12 = tail call noundef float @_Z21b3AdjustAngleToLimitsfff(float noundef %6, float noundef %9, float noundef %11)
  %13 = getelementptr inbounds nuw i8, ptr %8, i64 52
  store float %12, ptr %13, align 4, !tbaa !87
  %14 = load float, ptr %8, align 16, !tbaa !25
  %15 = load float, ptr %10, align 4, !tbaa !26
  %16 = fcmp ogt float %14, %15
  br i1 %16, label %17, label %19

17:                                               ; preds = %2
  %18 = getelementptr inbounds nuw i8, ptr %8, i64 56
  store i32 0, ptr %18, align 8, !tbaa !33
  br label %_ZN22b3RotationalLimitMotor14testLimitValueEf.exit

19:                                               ; preds = %2
  %20 = fcmp olt float %12, %14
  br i1 %20, label %21, label %32

21:                                               ; preds = %19
  %22 = getelementptr inbounds nuw i8, ptr %8, i64 56
  store i32 1, ptr %22, align 8, !tbaa !33
  %23 = fsub float %12, %14
  %24 = getelementptr inbounds nuw i8, ptr %8, i64 48
  store float %23, ptr %24, align 16, !tbaa !34
  %25 = fcmp ogt float %23, 0x400921FB60000000
  br i1 %25, label %26, label %28

26:                                               ; preds = %21
  %27 = fadd float %23, 0xC01921FB60000000
  store float %27, ptr %24, align 16, !tbaa !34
  br label %_ZN22b3RotationalLimitMotor14testLimitValueEf.exit

28:                                               ; preds = %21
  %29 = fcmp olt float %23, 0xC00921FB60000000
  br i1 %29, label %30, label %_ZN22b3RotationalLimitMotor14testLimitValueEf.exit

30:                                               ; preds = %28
  %31 = fadd float %23, 0x401921FB60000000
  store float %31, ptr %24, align 16, !tbaa !34
  br label %_ZN22b3RotationalLimitMotor14testLimitValueEf.exit

32:                                               ; preds = %19
  %33 = fcmp ogt float %12, %15
  %34 = getelementptr inbounds nuw i8, ptr %8, i64 56
  br i1 %33, label %35, label %45

35:                                               ; preds = %32
  store i32 2, ptr %34, align 8, !tbaa !33
  %36 = fsub float %12, %15
  %37 = getelementptr inbounds nuw i8, ptr %8, i64 48
  store float %36, ptr %37, align 16, !tbaa !34
  %38 = fcmp ogt float %36, 0x400921FB60000000
  br i1 %38, label %39, label %41

39:                                               ; preds = %35
  %40 = fadd float %36, 0xC01921FB60000000
  store float %40, ptr %37, align 16, !tbaa !34
  br label %_ZN22b3RotationalLimitMotor14testLimitValueEf.exit

41:                                               ; preds = %35
  %42 = fcmp olt float %36, 0xC00921FB60000000
  br i1 %42, label %43, label %_ZN22b3RotationalLimitMotor14testLimitValueEf.exit

43:                                               ; preds = %41
  %44 = fadd float %36, 0x401921FB60000000
  store float %44, ptr %37, align 16, !tbaa !34
  br label %_ZN22b3RotationalLimitMotor14testLimitValueEf.exit

45:                                               ; preds = %32
  store i32 0, ptr %34, align 8, !tbaa !33
  br label %_ZN22b3RotationalLimitMotor14testLimitValueEf.exit

_ZN22b3RotationalLimitMotor14testLimitValueEf.exit: ; preds = %17, %26, %28, %30, %39, %41, %43, %45
  %46 = phi i1 [ false, %17 ], [ true, %26 ], [ true, %28 ], [ true, %30 ], [ true, %39 ], [ true, %41 ], [ true, %43 ], [ false, %45 ]
  %47 = getelementptr inbounds nuw i8, ptr %8, i64 44
  %48 = load i8, ptr %47, align 4, !range !73
  %49 = icmp ne i8 %48, 0
  %or.cond.not.i = select i1 %46, i1 true, i1 %49
  ret i1 %or.cond.not.i
}